; Function Attrs: nofree norecurse nosync nounwind memory(readwrite, inaccessiblemem: none) uwtable
define internal void @ff_tx_fft2097152_ns_float_c(ptr readnone captures(none) %0, ptr noundef initializes((0, 128)) %1, ptr noundef readonly captures(none) %2, i64 %3) #10 {
  tail call void @ff_tx_fft1048576_ns_float_c(ptr poison, ptr noundef %1, ptr noundef %2, i64 poison)
  %5 = getelementptr inbounds nuw i8, ptr %1, i64 8388608
  %6 = getelementptr inbounds nuw i8, ptr %2, i64 8388608
  tail call void @ff_tx_fft524288_ns_float_c(ptr poison, ptr noundef nonnull %5, ptr noundef nonnull %6, i64 poison)
  %7 = getelementptr inbounds nuw i8, ptr %1, i64 12582912
  %8 = getelementptr inbounds nuw i8, ptr %2, i64 12582912
  tail call void @ff_tx_fft524288_ns_float_c(ptr poison, ptr noundef nonnull %7, ptr noundef nonnull %8, i64 poison)
  tail call fastcc void @ff_tx_fft_sr_combine_float_c(ptr noundef %1, ptr noundef nonnull @ff_tx_tab_2097152_float, i32 noundef 262144)
  ret void
}